; Function Attrs: mustprogress uwtable
define void @_ZN4YAML19GraphBuilderAdapter7OnAliasERKNS_4MarkEm(ptr noundef nonnull align 8 captures(none) dereferenceable(136) %0, ptr noundef nonnull align 4 dereferenceable(12) %1, i64 noundef %2) unnamed_addr #0 align 2 {
  %4 = getelementptr inbounds nuw i8, ptr %0, i64 96
  %5 = load ptr, ptr %4, align 8, !tbaa !37
  %6 = getelementptr ptr, ptr %5, i64 %2
  %7 = getelementptr i8, ptr %6, i64 -8
  %8 = load ptr, ptr %7, align 8, !tbaa !38
  %9 = getelementptr inbounds nuw i8, ptr %0, i64 8
  %10 = load ptr, ptr %9, align 8, !tbaa !19
  %11 = load ptr, ptr %10, align 8, !tbaa !34
  %12 = getelementptr inbounds nuw i8, ptr %11, i64 80
  %13 = load ptr, ptr %12, align 8
  %14 = tail call noundef ptr %13(ptr noundef nonnull align 8 dereferenceable(8) %10, ptr noundef nonnull align 4 dereferenceable(12) %1, ptr noundef %8)
  %15 = getelementptr inbounds nuw i8, ptr %0, i64 64
  %16 = getelementptr inbounds nuw i8, ptr %0, i64 32
  %17 = load ptr, ptr %15, align 8, !tbaa !3
  %18 = load ptr, ptr %16, align 8, !tbaa !3
  %19 = icmp eq ptr %17, %18
  br i1 %19, label %20, label %22

20:                                               ; preds = %3
  %21 = getelementptr inbounds nuw i8, ptr %0, i64 120
  store ptr %14, ptr %21, align 8, !tbaa !39
  br label %_ZN4YAML19GraphBuilderAdapter15DispositionNodeEPv.exit

22:                                               ; preds = %3
  %23 = getelementptr inbounds nuw i8, ptr %0, i64 72
  %24 = load ptr, ptr %23, align 8, !tbaa !11, !noalias !51
  %25 = icmp eq ptr %17, %24
  br i1 %25, label %27, label %_ZNSt5stackIN4YAML19GraphBuilderAdapter14ContainerFrameESt5dequeIS2_SaIS2_EEE3topEv.exit.i

_ZNSt5stackIN4YAML19GraphBuilderAdapter14ContainerFrameESt5dequeIS2_SaIS2_EEE3topEv.exit.i: ; preds = %22
  %26 = getelementptr inbounds i8, ptr %17, i64 -16
  br label %_ZNSt5stackIN4YAML19GraphBuilderAdapter14ContainerFrameESt5dequeIS2_SaIS2_EEE3topEv.exit7.i

27:                                               ; preds = %22
  %28 = getelementptr inbounds nuw i8, ptr %0, i64 88
  %29 = load ptr, ptr %28, align 8, !tbaa !15, !noalias !51
  %30 = getelementptr inbounds i8, ptr %29, i64 -8
  %31 = load ptr, ptr %30, align 8, !tbaa !16
  %32 = getelementptr inbounds nuw i8, ptr %31, i64 496
  %33 = getelementptr inbounds nuw i8, ptr %31, i64 512
  br label %_ZNSt5stackIN4YAML19GraphBuilderAdapter14ContainerFrameESt5dequeIS2_SaIS2_EEE3topEv.exit7.i

_ZNSt5stackIN4YAML19GraphBuilderAdapter14ContainerFrameESt5dequeIS2_SaIS2_EEE3topEv.exit7.i: ; preds = %27, %_ZNSt5stackIN4YAML19GraphBuilderAdapter14ContainerFrameESt5dequeIS2_SaIS2_EEE3topEv.exit.i
  %.in.i = phi ptr [ %32, %27 ], [ %26, %_ZNSt5stackIN4YAML19GraphBuilderAdapter14ContainerFrameESt5dequeIS2_SaIS2_EEE3topEv.exit.i ]
  %34 = phi ptr [ %33, %27 ], [ %17, %_ZNSt5stackIN4YAML19GraphBuilderAdapter14ContainerFrameESt5dequeIS2_SaIS2_EEE3topEv.exit.i ]
  %35 = load ptr, ptr %.in.i, align 8, !tbaa !17
  %36 = getelementptr inbounds i8, ptr %34, i64 -8
  %37 = load ptr, ptr %36, align 8, !tbaa !43
  %.not8.i = icmp eq ptr %37, @_ZN4YAML19GraphBuilderAdapter14ContainerFrame14sequenceMarkerE
  br i1 %.not8.i, label %47, label %38

38:                                               ; preds = %_ZNSt5stackIN4YAML19GraphBuilderAdapter14ContainerFrameESt5dequeIS2_SaIS2_EEE3topEv.exit7.i
  %39 = getelementptr inbounds nuw i8, ptr %0, i64 128
  %40 = load ptr, ptr %39, align 8, !tbaa !44
  %.not.i = icmp eq ptr %40, null
  br i1 %.not.i, label %46, label %41

41:                                               ; preds = %38
  %42 = load ptr, ptr %9, align 8, !tbaa !19
  %43 = load ptr, ptr %42, align 8, !tbaa !34
  %44 = getelementptr inbounds nuw i8, ptr %43, i64 64
  %45 = load ptr, ptr %44, align 8
  tail call void %45(ptr noundef nonnull align 8 dereferenceable(8) %42, ptr noundef %35, ptr noundef nonnull %40, ptr noundef %14)
  store ptr null, ptr %39, align 8, !tbaa !44
  br label %_ZN4YAML19GraphBuilderAdapter15DispositionNodeEPv.exit

46:                                               ; preds = %38
  store ptr %14, ptr %39, align 8, !tbaa !44
  br label %_ZN4YAML19GraphBuilderAdapter15DispositionNodeEPv.exit

47:                                               ; preds = %_ZNSt5stackIN4YAML19GraphBuilderAdapter14ContainerFrameESt5dequeIS2_SaIS2_EEE3topEv.exit7.i
  %48 = load ptr, ptr %9, align 8, !tbaa !19
  %49 = load ptr, ptr %48, align 8, !tbaa !34
  %50 = getelementptr inbounds nuw i8, ptr %49, i64 40
  %51 = load ptr, ptr %50, align 8
  tail call void %51(ptr noundef nonnull align 8 dereferenceable(8) %48, ptr noundef %35, ptr noundef %14)
  br label %_ZN4YAML19GraphBuilderAdapter15DispositionNodeEPv.exit

_ZN4YAML19GraphBuilderAdapter15DispositionNodeEPv.exit: ; preds = %20, %41, %46, %47
  ret void
}